target datalayout = "e-m:e-p270:32:32-p271:32:32-p272:64:64-i64:64-i128:128-f80:128-n8:16:32:64-S128"
target triple = "x86_64-pc-linux-gnu"

@.str.145 = private unnamed_addr constant [17 x i8] c"No timeout check\00", align 1
@.str.146 = private unnamed_addr constant [41 x i8] c"Wait until the contactless chip responds\00", align 1
@.str.147 = private unnamed_addr constant [7 x i8] c"%u [s]\00", align 1
@.str.148 = private unnamed_addr constant [16 x i8] c"%u:%02u [mm:ss]\00", align 1

; Function Attrs: null_pointer_is_valid sspstrong uwtable
define internal void @timeout_base(ptr noundef %0, i32 noundef %1) #0 {
  %3 = alloca ptr, align 8
  %4 = alloca i32, align 4
  store ptr %0, ptr %3, align 8
  store i32 %1, ptr %4, align 4
  %5 = load i32, ptr %4, align 4
  %6 = icmp eq i32 %5, 0
  br i1 %6, label %7, label %12

7:                                                ; preds = %2
  %8 = load ptr, ptr %3, align 8
  %9 = load ptr, ptr %3, align 8
  %10 = call i64 @llvm.objectsize.i64.p0(ptr %9, i1 false, i1 true, i1 true)
  %11 = call i32 (ptr, i64, i32, i64, ptr, ...) @__snprintf_chk(ptr noundef %8, i64 noundef 240, i32 noundef 2, i64 noundef %10, ptr noundef @.str.145)
  br label %43

12:                                               ; preds = %2
  %13 = load i32, ptr %4, align 4
  %14 = icmp eq i32 %13, 255
  br i1 %14, label %15, label %20

15:                                               ; preds = %12
  %16 = load ptr, ptr %3, align 8
  %17 = load ptr, ptr %3, align 8
  %18 = call i64 @llvm.objectsize.i64.p0(ptr %17, i1 false, i1 true, i1 true)
  %19 = call i32 (ptr, i64, i32, i64, ptr, ...) @__snprintf_chk(ptr noundef %16, i64 noundef 240, i32 noundef 2, i64 noundef %18, ptr noundef @.str.146)
  br label %42

20:                                               ; preds = %12
  %21 = load i32, ptr %4, align 4
  %22 = icmp ult i32 %21, 12
  br i1 %22, label %23, label %30

23:                                               ; preds = %20
  %24 = load ptr, ptr %3, align 8
  %25 = load ptr, ptr %3, align 8
  %26 = call i64 @llvm.objectsize.i64.p0(ptr %25, i1 false, i1 true, i1 true)
  %27 = load i32, ptr %4, align 4
  %28 = mul i32 %27, 5
  %29 = call i32 (ptr, i64, i32, i64, ptr, ...) @__snprintf_chk(ptr noundef %24, i64 noundef 240, i32 noundef 2, i64 noundef %26, ptr noundef @.str.147, i32 noundef %28)
  br label %41

30:                                               ; preds = %20
  %31 = load ptr, ptr %3, align 8
  %32 = load ptr, ptr %3, align 8
  %33 = call i64 @llvm.objectsize.i64.p0(ptr %32, i1 false, i1 true, i1 true)
  %34 = load i32, ptr %4, align 4
  %35 = mul i32 %34, 5
  %36 = udiv i32 %35, 60
  %37 = load i32, ptr %4, align 4
  %38 = mul i32 %37, 5
  %39 = urem i32 %38, 60
  %40 = call i32 (ptr, i64, i32, i64, ptr, ...) @__snprintf_chk(ptr noundef %31, i64 noundef 240, i32 noundef 2, i64 noundef %33, ptr noundef @.str.148, i32 noundef %36, i32 noundef %39)
  br label %41

41:                                               ; preds = %30, %23
  br label %42

42:                                               ; preds = %41, %15
  br label %43

43:                                               ; preds = %42, %7
  ret void
}