; Function Attrs: nofree null_pointer_is_valid sspstrong uwtable
define internal void @timeout_base(ptr noundef %0, i32 noundef %1) #2 {
  switch i32 %1, label %7 [
    i32 0, label %3
    i32 255, label %5
  ]

3:                                                ; preds = %2
  %4 = tail call i32 (ptr, i64, i32, i64, ptr, ...) @__snprintf_chk(ptr noundef %0, i64 noundef 240, i32 noundef 2, i64 noundef -1, ptr noundef nonnull @.str.145)
  br label %16

5:                                                ; preds = %2
  %6 = tail call i32 (ptr, i64, i32, i64, ptr, ...) @__snprintf_chk(ptr noundef %0, i64 noundef 240, i32 noundef 2, i64 noundef -1, ptr noundef nonnull @.str.146)
  br label %16

7:                                                ; preds = %2
  %8 = icmp ult i32 %1, 12
  %9 = mul i32 %1, 5
  br i1 %8, label %10, label %12

10:                                               ; preds = %7
  %11 = tail call i32 (ptr, i64, i32, i64, ptr, ...) @__snprintf_chk(ptr noundef %0, i64 noundef 240, i32 noundef 2, i64 noundef -1, ptr noundef nonnull @.str.147, i32 noundef %9)
  br label %16

12:                                               ; preds = %7
  %13 = udiv i32 %9, 60
  %14 = urem i32 %9, 60
  %15 = tail call i32 (ptr, i64, i32, i64, ptr, ...) @__snprintf_chk(ptr noundef %0, i64 noundef 240, i32 noundef 2, i64 noundef -1, ptr noundef nonnull @.str.148, i32 noundef %13, i32 noundef %14)
  br label %16

16:                                               ; preds = %5, %12, %10, %3
  ret void
}